   1              		.cpu arm7tdmi
   2              		.fpu softvfp
   3              		.eabi_attribute 20, 1
   4              		.eabi_attribute 21, 1
   5              		.eabi_attribute 23, 3
   6              		.eabi_attribute 24, 1
   7              		.eabi_attribute 25, 1
   8              		.eabi_attribute 26, 1
   9              		.eabi_attribute 30, 6
  10              		.eabi_attribute 18, 4
  11              		.file	"botones_antirebotes.c"
  21              	.Ltext0:
  22              		.file 1 "../botones_antirebotes.c"
 998              		.align	2
 999              	int_count:
 1000 0000 00000000 		.space	4
 1001              		.global	trp
 1002              		.data
 1003              		.align	2
 1006              	trp:
 1007 0000 05000000 		.word	5
 1008              		.global	trd
 1009              		.align	2
 1012              	trd:
 1013 0004 05000000 		.word	5
 1014              		.global	boton_pulsado_antirebotes
 1015              		.bss
 1018              	boton_pulsado_antirebotes:
 1019 0004 00       		.space	1
 1020              		.global	maquina
 1023              	maquina:
 1024 0005 00       		.space	1
 1025              		.global	trp_realizado
 1026 0006 0000     		.align	2
 1029              	trp_realizado:
 1030 0008 00000000 		.space	4
 1031              		.global	trd_realizado
 1032              		.align	2
 1035              	trd_realizado:
 1036 000c 00000000 		.space	4
 1037              		.text
 1038              		.align	2
 1039              		.global	callback_antirebotes
 1041              	callback_antirebotes:
 1042              	.LFB0:
   1:../botones_antirebotes.c **** /*
   2:../botones_antirebotes.c ****  * botones_antirebotes.c
   3:../botones_antirebotes.c ****  *
   4:../botones_antirebotes.c ****  *  Created on: 06/11/2018
   5:../botones_antirebotes.c ****  *      Author: Ivo
   6:../botones_antirebotes.c ****  */
   7:../botones_antirebotes.c **** 
   8:../botones_antirebotes.c **** #include "botones_antirebotes.h"
   9:../botones_antirebotes.c **** #include "button.h"
  10:../botones_antirebotes.c **** #include "latido.h"
  11:../botones_antirebotes.c **** #include "8led.h"
  12:../botones_antirebotes.c **** 
  13:../botones_antirebotes.c **** /* int_count la utilizamos para sacar un número por el 8led.
  14:../botones_antirebotes.c ****   Cuando se pulsa un botón sumamos y con el otro restamos. ¡A veces hay rebotes! */
  15:../botones_antirebotes.c **** static unsigned int int_count = 0;
  16:../botones_antirebotes.c **** //Estados de la maquina
  17:../botones_antirebotes.c **** typedef enum{sin_pulsar,ret_inicio,monitorizacion,ret_salida}
  18:../botones_antirebotes.c **** estado_botones_antirebotes;
  19:../botones_antirebotes.c **** 
  20:../botones_antirebotes.c **** int trp = 5;
  21:../botones_antirebotes.c **** int trd = 5;
  22:../botones_antirebotes.c **** estado_button boton_pulsado_antirebotes = button_none;
  23:../botones_antirebotes.c **** estado_botones_antirebotes maquina = sin_pulsar;
  24:../botones_antirebotes.c **** 
  25:../botones_antirebotes.c **** int trp_realizado=0;
  26:../botones_antirebotes.c **** int trd_realizado=0;
  27:../botones_antirebotes.c **** void callback_antirebotes(estado_button);
  28:../botones_antirebotes.c **** void callback_espera();
  29:../botones_antirebotes.c **** void incrementa();
  30:../botones_antirebotes.c **** 
  31:../botones_antirebotes.c **** void callback_antirebotes(estado_button e){
 1043              		.loc 1 31 0
 1044              		.cfi_startproc
 1045              		@ Function supports interworking.
 1046              		@ args = 0, pretend = 0, frame = 16
 1047              		@ frame_needed = 1, uses_anonymous_args = 0
 1048 0000 0DC0A0E1 		mov	ip, sp
 1049              	.LCFI0:
 1050              		.cfi_def_cfa_register 12
 1051 0004 00D82DE9 		stmfd	sp!, {fp, ip, lr, pc}
 1052 0008 04B04CE2 		sub	fp, ip, #4
 1053              		.cfi_offset 14, -8
 1054              		.cfi_offset 13, -12
 1055              		.cfi_offset 11, -16
 1056              	.LCFI1:
 1057              		.cfi_def_cfa 11, 4
 1058 000c 10D04DE2 		sub	sp, sp, #16
 1059 0010 0030A0E1 		mov	r3, r0
 1060 0014 15304BE5 		strb	r3, [fp, #-21]
  32:../botones_antirebotes.c **** 	boton_pulsado_antirebotes = e;
 1061              		.loc 1 32 0
 1062 0018 80309FE5 		ldr	r3, .L5
 1063 001c 15205BE5 		ldrb	r2, [fp, #-21]
 1064 0020 0020C3E5 		strb	r2, [r3, #0]
  33:../botones_antirebotes.c **** 	estado_botones_antirebotes aux = maquina;
 1065              		.loc 1 33 0
 1066 0024 78309FE5 		ldr	r3, .L5+4
 1067 0028 0030D3E5 		ldrb	r3, [r3, #0]
 1068 002c 0D304BE5 		strb	r3, [fp, #-13]
  34:../botones_antirebotes.c **** 	 switch(maquina){
 1069              		.loc 1 34 0
 1070 0030 6C309FE5 		ldr	r3, .L5+4
 1071 0034 0030D3E5 		ldrb	r3, [r3, #0]	@ zero_extendqisi2
 1072 0038 000053E3 		cmp	r3, #0
 1073 003c 0200000A 		beq	.L3
 1074 0040 030053E3 		cmp	r3, #3
 1075 0044 0A00000A 		beq	.L4
 1076 0048 110000EA 		b	.L1
 1077              	.L3:
  35:../botones_antirebotes.c **** 	 case sin_pulsar: //Se ha pulsado un boton por primera vez
  36:../botones_antirebotes.c **** 		 espera_ticks(trp,callback_espera); //Esperamos un retardo
 1078              		.loc 1 36 0
 1079 004c 54309FE5 		ldr	r3, .L5+8
 1080 0050 002093E5 		ldr	r2, [r3, #0]
 1081 0054 50309FE5 		ldr	r3, .L5+12
 1082 0058 0200A0E1 		mov	r0, r2
 1083 005c 0310A0E1 		mov	r1, r3
 1084 0060 FEFFFFEB 		bl	espera_ticks
  37:../botones_antirebotes.c **** 		 maquina = ret_inicio;
 1085              		.loc 1 37 0
 1086 0064 38309FE5 		ldr	r3, .L5+4
 1087 0068 0120A0E3 		mov	r2, #1
 1088 006c 0020C3E5 		strb	r2, [r3, #0]
  38:../botones_antirebotes.c **** 		 break;
 1089              		.loc 1 38 0
 1090 0070 070000EA 		b	.L1
 1091              	.L4:
  39:../botones_antirebotes.c **** 	 case ret_salida:
  40:../botones_antirebotes.c **** 		 incrementa();
 1092              		.loc 1 40 0
 1093 0074 FEFFFFEB 		bl	incrementa
  41:../botones_antirebotes.c **** 		 espera_ticks(trd,callback_espera);
 1094              		.loc 1 41 0
 1095 0078 30309FE5 		ldr	r3, .L5+16
 1096 007c 002093E5 		ldr	r2, [r3, #0]
 1097 0080 24309FE5 		ldr	r3, .L5+12
 1098 0084 0200A0E1 		mov	r0, r2
 1099 0088 0310A0E1 		mov	r1, r3
 1100 008c FEFFFFEB 		bl	espera_ticks
  42:../botones_antirebotes.c **** 		 break;
 1101              		.loc 1 42 0
 1102 0090 0000A0E1 		mov	r0, r0	@ nop
 1103              	.L1:
  43:../botones_antirebotes.c **** 	 }
  44:../botones_antirebotes.c **** }
 1104              		.loc 1 44 0
 1105 0094 0CD04BE2 		sub	sp, fp, #12
 1106 0098 00689DE8 		ldmfd	sp, {fp, sp, lr}
 1107 009c 1EFF2FE1 		bx	lr
 1108              	.L6:
 1109              		.align	2
 1110              	.L5:
 1111 00a0 00000000 		.word	boton_pulsado_antirebotes
 1112 00a4 00000000 		.word	maquina
 1113 00a8 00000000 		.word	trp
 1114 00ac 00000000 		.word	callback_espera
 1115 00b0 00000000 		.word	trd
 1116              		.cfi_endproc
 1117              	.LFE0:
 1119              		.align	2
 1120              		.global	callback_espera
 1122              	callback_espera:
 1123              	.LFB1:
  45:../botones_antirebotes.c **** 
  46:../botones_antirebotes.c **** void callback_espera(){
 1124              		.loc 1 46 0
 1125              		.cfi_startproc
 1126              		@ Function supports interworking.
 1127              		@ args = 0, pretend = 0, frame = 0
 1128              		@ frame_needed = 1, uses_anonymous_args = 0
 1129 00b4 0DC0A0E1 		mov	ip, sp
 1130              	.LCFI2:
 1131              		.cfi_def_cfa_register 12
 1132 00b8 00D82DE9 		stmfd	sp!, {fp, ip, lr, pc}
 1133 00bc 04B04CE2 		sub	fp, ip, #4
 1134              		.cfi_offset 14, -8
 1135              		.cfi_offset 13, -12
 1136              		.cfi_offset 11, -16
 1137              	.LCFI3:
 1138              		.cfi_def_cfa 11, 4
  47:../botones_antirebotes.c **** 	switch(maquina){
 1139              		.loc 1 47 0
 1140 00c0 AC309FE5 		ldr	r3, .L14
 1141 00c4 0030D3E5 		ldrb	r3, [r3, #0]	@ zero_extendqisi2
 1142 00c8 020053E3 		cmp	r3, #2
 1143 00cc 0E00000A 		beq	.L10
 1144 00d0 030053E3 		cmp	r3, #3
 1145 00d4 1D00000A 		beq	.L11
 1146 00d8 010053E3 		cmp	r3, #1
 1147 00dc 2100001A 		bne	.L7
 1148              	.L9:
  48:../botones_antirebotes.c **** 	case ret_inicio:
  49:../botones_antirebotes.c **** 		trp_realizado=1;
 1149              		.loc 1 49 0
 1150 00e0 90309FE5 		ldr	r3, .L14+4
 1151 00e4 0120A0E3 		mov	r2, #1
 1152 00e8 002083E5 		str	r2, [r3, #0]
  50:../botones_antirebotes.c **** 		maquina=monitorizacion;
 1153              		.loc 1 50 0
 1154 00ec 80309FE5 		ldr	r3, .L14
 1155 00f0 0220A0E3 		mov	r2, #2
 1156 00f4 0020C3E5 		strb	r2, [r3, #0]
  51:../botones_antirebotes.c **** 		espera_ticks(1,callback_espera);
 1157              		.loc 1 51 0
 1158 00f8 7C309FE5 		ldr	r3, .L14+8
 1159 00fc 0100A0E3 		mov	r0, #1
 1160 0100 0310A0E1 		mov	r1, r3
 1161 0104 FEFFFFEB 		bl	espera_ticks
  52:../botones_antirebotes.c **** 		break;
 1162              		.loc 1 52 0
 1163 0108 160000EA 		b	.L7
 1164              	.L10:
  53:../botones_antirebotes.c **** 	case monitorizacion:
  54:../botones_antirebotes.c **** 		if(button_estado() == button_none){ //He levantado
 1165              		.loc 1 54 0
 1166 010c FEFFFFEB 		bl	button_estado
 1167 0110 0030A0E1 		mov	r3, r0
 1168 0114 000053E3 		cmp	r3, #0
 1169 0118 0700001A 		bne	.L12
  55:../botones_antirebotes.c **** 			maquina = ret_salida;
 1170              		.loc 1 55 0
 1171 011c 50309FE5 		ldr	r3, .L14
 1172 0120 0320A0E3 		mov	r2, #3
 1173 0124 0020C3E5 		strb	r2, [r3, #0]
  56:../botones_antirebotes.c **** 			callback_antirebotes(boton_pulsado_antirebotes); //Realizo la logica necesaria y vuelvo a espera
 1174              		.loc 1 56 0
 1175 0128 50309FE5 		ldr	r3, .L14+12
 1176 012c 0030D3E5 		ldrb	r3, [r3, #0]	@ zero_extendqisi2
 1177 0130 0300A0E1 		mov	r0, r3
 1178 0134 FEFFFFEB 		bl	callback_antirebotes
  57:../botones_antirebotes.c **** 		}else{
  58:../botones_antirebotes.c **** 			espera_ticks(1,callback_espera);
  59:../botones_antirebotes.c **** 		}
  60:../botones_antirebotes.c **** 		break;
 1179              		.loc 1 60 0
 1180 0138 0A0000EA 		b	.L7
 1181              	.L12:
  58:../botones_antirebotes.c **** 			espera_ticks(1,callback_espera);
 1182              		.loc 1 58 0
 1183 013c 38309FE5 		ldr	r3, .L14+8
 1184 0140 0100A0E3 		mov	r0, #1
 1185 0144 0310A0E1 		mov	r1, r3
 1186 0148 FEFFFFEB 		bl	espera_ticks
 1187              		.loc 1 60 0
 1188 014c 050000EA 		b	.L7
 1189              	.L11:
  61:../botones_antirebotes.c **** 	case ret_salida:
  62:../botones_antirebotes.c **** 		maquina = sin_pulsar;
 1190              		.loc 1 62 0
 1191 0150 1C309FE5 		ldr	r3, .L14
 1192 0154 0020A0E3 		mov	r2, #0
 1193 0158 0020C3E5 		strb	r2, [r3, #0]
  63:../botones_antirebotes.c **** 		button_empezar(callback_antirebotes);
 1194              		.loc 1 63 0
 1195 015c 20009FE5 		ldr	r0, .L14+16
 1196 0160 FEFFFFEB 		bl	button_empezar
  64:../botones_antirebotes.c **** 		break;
 1197              		.loc 1 64 0
 1198 0164 0000A0E1 		mov	r0, r0	@ nop
 1199              	.L7:
  65:../botones_antirebotes.c **** 	}
  66:../botones_antirebotes.c **** }
 1200              		.loc 1 66 0
 1201 0168 0CD04BE2 		sub	sp, fp, #12
 1202 016c 00689DE8 		ldmfd	sp, {fp, sp, lr}
 1203 0170 1EFF2FE1 		bx	lr
 1204              	.L15:
 1205              		.align	2
 1206              	.L14:
 1207 0174 00000000 		.word	maquina
 1208 0178 00000000 		.word	trp_realizado
 1209 017c 00000000 		.word	callback_espera
 1210 0180 00000000 		.word	boton_pulsado_antirebotes
 1211 0184 00000000 		.word	callback_antirebotes
 1212              		.cfi_endproc
 1213              	.LFE1:
 1215              		.align	2
 1216              		.global	inicio_antirebotes
 1218              	inicio_antirebotes:
 1219              	.LFB2:
  67:../botones_antirebotes.c **** 
  68:../botones_antirebotes.c **** void inicio_antirebotes(){
 1220              		.loc 1 68 0
 1221              		.cfi_startproc
 1222              		@ Function supports interworking.
 1223              		@ args = 0, pretend = 0, frame = 0
 1224              		@ frame_needed = 1, uses_anonymous_args = 0
 1225 0188 0DC0A0E1 		mov	ip, sp
 1226              	.LCFI4:
 1227              		.cfi_def_cfa_register 12
 1228 018c 00D82DE9 		stmfd	sp!, {fp, ip, lr, pc}
 1229 0190 04B04CE2 		sub	fp, ip, #4
 1230              		.cfi_offset 14, -8
 1231              		.cfi_offset 13, -12
 1232              		.cfi_offset 11, -16
 1233              	.LCFI5:
 1234              		.cfi_def_cfa 11, 4
  69:../botones_antirebotes.c **** 	button_iniciar();
 1235              		.loc 1 69 0
 1236 0194 FEFFFFEB 		bl	button_iniciar
  70:../botones_antirebotes.c **** 	button_empezar(callback_antirebotes);
 1237              		.loc 1 70 0
 1238 0198 0C009FE5 		ldr	r0, .L17
 1239 019c FEFFFFEB 		bl	button_empezar
  71:../botones_antirebotes.c **** }
 1240              		.loc 1 71 0
 1241 01a0 0CD04BE2 		sub	sp, fp, #12
 1242 01a4 00689DE8 		ldmfd	sp, {fp, sp, lr}
 1243 01a8 1EFF2FE1 		bx	lr
 1244              	.L18:
 1245              		.align	2
 1246              	.L17:
 1247 01ac 00000000 		.word	callback_antirebotes
 1248              		.cfi_endproc
 1249              	.LFE2:
 1251              		.align	2
 1252              		.global	incrementa
 1254              	incrementa:
 1255              	.LFB3:
  72:../botones_antirebotes.c **** 
  73:../botones_antirebotes.c **** void incrementa(){
 1256              		.loc 1 73 0
 1257              		.cfi_startproc
 1258              		@ Function supports interworking.
 1259              		@ args = 0, pretend = 0, frame = 0
 1260              		@ frame_needed = 1, uses_anonymous_args = 0
 1261 01b0 0DC0A0E1 		mov	ip, sp
 1262              	.LCFI6:
 1263              		.cfi_def_cfa_register 12
 1264 01b4 00D82DE9 		stmfd	sp!, {fp, ip, lr, pc}
 1265 01b8 04B04CE2 		sub	fp, ip, #4
 1266              		.cfi_offset 14, -8
 1267              		.cfi_offset 13, -12
 1268              		.cfi_offset 11, -16
 1269              	.LCFI7:
 1270              		.cfi_def_cfa 11, 4
  74:../botones_antirebotes.c **** 	switch (boton_pulsado_antirebotes)
 1271              		.loc 1 74 0
 1272 01bc 64309FE5 		ldr	r3, .L24
 1273 01c0 0030D3E5 		ldrb	r3, [r3, #0]	@ zero_extendqisi2
 1274 01c4 040053E3 		cmp	r3, #4
 1275 01c8 0200000A 		beq	.L21
 1276 01cc 080053E3 		cmp	r3, #8
 1277 01d0 0600000A 		beq	.L22
  75:../botones_antirebotes.c **** 		{
  76:../botones_antirebotes.c **** 			case button_iz:
  77:../botones_antirebotes.c **** 				int_count++; // incrementamos el contador
  78:../botones_antirebotes.c **** 				break;
  79:../botones_antirebotes.c **** 			case button_dr:
  80:../botones_antirebotes.c **** 				int_count--; // decrementamos el contador
  81:../botones_antirebotes.c **** 				break;
  82:../botones_antirebotes.c **** 			default:
  83:../botones_antirebotes.c **** 				break;
 1278              		.loc 1 83 0
 1279 01d4 0B0000EA 		b	.L23
 1280              	.L21:
  77:../botones_antirebotes.c **** 				int_count++; // incrementamos el contador
 1281              		.loc 1 77 0
 1282 01d8 4C309FE5 		ldr	r3, .L24+4
 1283 01dc 003093E5 		ldr	r3, [r3, #0]
 1284 01e0 012083E2 		add	r2, r3, #1
 1285 01e4 40309FE5 		ldr	r3, .L24+4
 1286 01e8 002083E5 		str	r2, [r3, #0]
  78:../botones_antirebotes.c **** 				break;
 1287              		.loc 1 78 0
 1288 01ec 050000EA 		b	.L23
 1289              	.L22:
  80:../botones_antirebotes.c **** 				int_count--; // decrementamos el contador
 1290              		.loc 1 80 0
 1291 01f0 34309FE5 		ldr	r3, .L24+4
 1292 01f4 003093E5 		ldr	r3, [r3, #0]
 1293 01f8 012043E2 		sub	r2, r3, #1
 1294 01fc 28309FE5 		ldr	r3, .L24+4
 1295 0200 002083E5 		str	r2, [r3, #0]
  81:../botones_antirebotes.c **** 				break;
 1296              		.loc 1 81 0
 1297 0204 0000A0E1 		mov	r0, r0	@ nop
 1298              	.L23:
  84:../botones_antirebotes.c **** 		}
  85:../botones_antirebotes.c **** 		D8Led_symbol(int_count & 0x000f); // sacamos el valor por pantalla (módulo 16)
 1299              		.loc 1 85 0
 1300 0208 1C309FE5 		ldr	r3, .L24+4
 1301 020c 003093E5 		ldr	r3, [r3, #0]
 1302 0210 0F3003E2 		and	r3, r3, #15
 1303 0214 0300A0E1 		mov	r0, r3
 1304 0218 FEFFFFEB 		bl	D8Led_symbol
  86:../botones_antirebotes.c **** }
 1305              		.loc 1 86 0
 1306 021c 0CD04BE2 		sub	sp, fp, #12
 1307 0220 00689DE8 		ldmfd	sp, {fp, sp, lr}
 1308 0224 1EFF2FE1 		bx	lr
 1309              	.L25:
 1310              		.align	2
 1311              	.L24:
 1312 0228 00000000 		.word	boton_pulsado_antirebotes
 1313 022c 00000000 		.word	int_count
 1314              		.cfi_endproc
 1315              	.LFE3:
 1317              	.Letext0: