   1              		.cpu arm7tdmi
   2              		.fpu softvfp
   3              		.eabi_attribute 20, 1
   4              		.eabi_attribute 21, 1
   5              		.eabi_attribute 23, 3
   6              		.eabi_attribute 24, 1
   7              		.eabi_attribute 25, 1
   8              		.eabi_attribute 26, 1
   9              		.eabi_attribute 30, 6
  10              		.eabi_attribute 18, 4
  11              		.file	"latido.c"
  21              	.Ltext0:
  22              		.file 1 "../latido.c"
 1880              		.align	2
 1883              	switch_leds_l:
 1884 0000 00000000 		.space	4
 1885              		.global	n_interrupt
 1886              		.align	2
 1889              	n_interrupt:
 1890 0004 00000000 		.space	4
 1891              		.global	en_espera
 1892              		.align	2
 1895              	en_espera:
 1896 0008 00000000 		.space	4
 1897              		.global	cuenta_espera
 1898              		.align	2
 1901              	cuenta_espera:
 1902 000c 00000000 		.space	4
 1903              		.global	espera
 1904              		.data
 1905              		.align	2
 1908              	espera:
 1909 0000 33000000 		.word	51
 1910              		.comm	funcion_callback,4,4
 1911              		.text
 1912              		.align	2
 1913              		.global	latido_ISR
 1915              	latido_ISR:
 1916              	.LFB0:
   1:../latido.c   **** /*********************************************************************************************
   2:../latido.c   **** * Fichero:		timer2.c
   3:../latido.c   **** * Autores:		Yasmina Albero e Iván Escuín
   4:../latido.c   **** * Descrip:		funciones de control del timer2 del s3c44b0x
   5:../latido.c   **** * Version: 1.0
   6:../latido.c   **** *********************************************************************************************/
   7:../latido.c   **** 
   8:../latido.c   **** /*--- ficheros de cabecera ---*/
   9:../latido.c   **** 
  10:../latido.c   **** #include "44b.h"
  11:../latido.c   **** #include "44blib.h"
  12:../latido.c   **** #include "latido.h"
  13:../latido.c   **** 
  14:../latido.c   **** /*--- variables globales ---*/
  15:../latido.c   **** volatile unsigned int n_interrupt=0;
  16:../latido.c   **** int switch_leds_l = 0;
  17:../latido.c   **** 
  18:../latido.c   **** //Variables para la gestion de esperas de rebotes
  19:../latido.c   **** int en_espera = 0;
  20:../latido.c   **** int cuenta_espera = 0;
  21:../latido.c   **** int espera = 51; //Como solo se cuentan 50 interrupciones, a 51 nunca llega
  22:../latido.c   **** 
  23:../latido.c   **** //Funcion de callback para las esperas de retardo
  24:../latido.c   **** void (*funcion_callback)(void);
  25:../latido.c   **** 
  26:../latido.c   **** /* declaración de función que es rutina de servicio de interrupción
  27:../latido.c   ****  * https://gcc.gnu.org/onlinedocs/gcc/ARM-Function-Attributes.html */
  28:../latido.c   **** void latido_ISR(void) __attribute__((interrupt("IRQ")));
  29:../latido.c   **** 
  30:../latido.c   **** /*--- codigo de las funciones ---*/
  31:../latido.c   **** /* Rutina de servicio de interrupción para timer2 */
  32:../latido.c   **** void latido_ISR(void)
  33:../latido.c   **** {
 1917              		.loc 1 33 0
 1918              		.cfi_startproc
 1919              		@ Interrupt Service Routine.
 1920              		@ args = 0, pretend = 0, frame = 8
 1921              		@ frame_needed = 1, uses_anonymous_args = 0
 1922 0000 04C02DE5 		str	ip, [sp, #-4]!
 1923 0004 0DC0A0E1 		mov	ip, sp
 1924              	.LCFI0:
 1925              		.cfi_def_cfa_register 12
 1926 0008 0FD82DE9 		stmfd	sp!, {r0, r1, r2, r3, fp, ip, lr, pc}
 1927 000c 04B04CE2 		sub	fp, ip, #4
 1928              		.cfi_offset 14, -8
 1929              		.cfi_offset 13, -12
 1930              		.cfi_offset 11, -16
 1931              		.cfi_offset 3, -20
 1932              		.cfi_offset 2, -24
 1933              		.cfi_offset 1, -28
 1934              		.cfi_offset 0, -32
 1935              	.LCFI1:
 1936              		.cfi_def_cfa 11, 4
 1937 0010 08D04DE2 		sub	sp, sp, #8
  34:../latido.c   **** #ifndef EMU
  35:../latido.c   **** 	switch_leds_l ++;
 1938              		.loc 1 35 0
 1939 0014 18319FE5 		ldr	r3, .L8
 1940 0018 003093E5 		ldr	r3, [r3, #0]
 1941 001c 012083E2 		add	r2, r3, #1
 1942 0020 0C319FE5 		ldr	r3, .L8
 1943 0024 002083E5 		str	r2, [r3, #0]
  36:../latido.c   **** 	if(en_espera){ // Si estoy esperando ticks, aumento la cuenta
 1944              		.loc 1 36 0
 1945 0028 08319FE5 		ldr	r3, .L8+4
 1946 002c 003093E5 		ldr	r3, [r3, #0]
 1947 0030 000053E3 		cmp	r3, #0
 1948 0034 0400000A 		beq	.L2
  37:../latido.c   **** 		cuenta_espera++;
 1949              		.loc 1 37 0
 1950 0038 FC309FE5 		ldr	r3, .L8+8
 1951 003c 003093E5 		ldr	r3, [r3, #0]
 1952 0040 012083E2 		add	r2, r3, #1
 1953 0044 F0309FE5 		ldr	r3, .L8+8
 1954 0048 002083E5 		str	r2, [r3, #0]
 1955              	.L2:
  38:../latido.c   **** 	}
  39:../latido.c   **** 	if(cuenta_espera == espera && en_espera ){ //Compruebo si he esperado los ticks suficientes
 1956              		.loc 1 39 0
 1957 004c E8309FE5 		ldr	r3, .L8+8
 1958 0050 002093E5 		ldr	r2, [r3, #0]
 1959 0054 E4309FE5 		ldr	r3, .L8+12
 1960 0058 003093E5 		ldr	r3, [r3, #0]
 1961 005c 030052E1 		cmp	r2, r3
 1962 0060 1000001A 		bne	.L3
 1963              		.loc 1 39 0 is_stmt 0 discriminator 1
 1964 0064 CC309FE5 		ldr	r3, .L8+4
 1965 0068 003093E5 		ldr	r3, [r3, #0]
 1966 006c 000053E3 		cmp	r3, #0
 1967 0070 0C00000A 		beq	.L3
  40:../latido.c   **** 		//Reseteo los contadores y llamo a la funcion de callback
  41:../latido.c   **** 		espera=51;
 1968              		.loc 1 41 0 is_stmt 1
 1969 0074 C4309FE5 		ldr	r3, .L8+12
 1970 0078 3320A0E3 		mov	r2, #51
 1971 007c 002083E5 		str	r2, [r3, #0]
  42:../latido.c   **** 		en_espera=0;
 1972              		.loc 1 42 0
 1973 0080 B0309FE5 		ldr	r3, .L8+4
 1974 0084 0020A0E3 		mov	r2, #0
 1975 0088 002083E5 		str	r2, [r3, #0]
  43:../latido.c   **** 		cuenta_espera=0;
 1976              		.loc 1 43 0
 1977 008c A8309FE5 		ldr	r3, .L8+8
 1978 0090 0020A0E3 		mov	r2, #0
 1979 0094 002083E5 		str	r2, [r3, #0]
  44:../latido.c   **** 		funcion_callback();
 1980              		.loc 1 44 0
 1981 0098 A4309FE5 		ldr	r3, .L8+16
 1982 009c 003093E5 		ldr	r3, [r3, #0]
 1983 00a0 0FE0A0E1 		mov	lr, pc
 1984 00a4 13FF2FE1 		bx	r3
 1985              	.L3:
  45:../latido.c   **** 	}
  46:../latido.c   **** 	int aux=switch_leds_l;
 1986              		.loc 1 46 0
 1987 00a8 84309FE5 		ldr	r3, .L8
 1988 00ac 003093E5 		ldr	r3, [r3, #0]
 1989 00b0 20300BE5 		str	r3, [fp, #-32]
  47:../latido.c   **** 
  48:../latido.c   **** 	if(switch_leds_l == 24){
 1990              		.loc 1 48 0
 1991 00b4 78309FE5 		ldr	r3, .L8
 1992 00b8 003093E5 		ldr	r3, [r3, #0]
 1993 00bc 180053E3 		cmp	r3, #24
 1994 00c0 0000001A 		bne	.L4
 1995              	.LBB2:
  49:../latido.c   **** 		led1_on();
 1996              		.loc 1 49 0
 1997 00c4 FEFFFFEB 		bl	led1_on
 1998              	.L4:
 1999              	.LBE2:
  50:../latido.c   **** 	}
  51:../latido.c   **** 	if(switch_leds_l == 25){
 2000              		.loc 1 51 0
 2001 00c8 64309FE5 		ldr	r3, .L8
 2002 00cc 003093E5 		ldr	r3, [r3, #0]
 2003 00d0 190053E3 		cmp	r3, #25
 2004 00d4 0000001A 		bne	.L5
 2005              	.LBB3:
  52:../latido.c   **** 		led1_off();
 2006              		.loc 1 52 0
 2007 00d8 FEFFFFEB 		bl	led1_off
 2008              	.L5:
 2009              	.LBE3:
  53:../latido.c   **** 	}
  54:../latido.c   **** 
  55:../latido.c   **** 	if(switch_leds_l==49){
 2010              		.loc 1 55 0
 2011 00dc 50309FE5 		ldr	r3, .L8
 2012 00e0 003093E5 		ldr	r3, [r3, #0]
 2013 00e4 310053E3 		cmp	r3, #49
 2014 00e8 0000001A 		bne	.L6
 2015              	.LBB4:
  56:../latido.c   **** 		led1_on();
 2016              		.loc 1 56 0
 2017 00ec FEFFFFEB 		bl	led1_on
 2018              	.L6:
 2019              	.LBE4:
  57:../latido.c   **** 	}
  58:../latido.c   **** 	if(switch_leds_l==50){
 2020              		.loc 1 58 0
 2021 00f0 3C309FE5 		ldr	r3, .L8
 2022 00f4 003093E5 		ldr	r3, [r3, #0]
 2023 00f8 320053E3 		cmp	r3, #50
 2024 00fc 0300001A 		bne	.L7
 2025              	.LBB5:
  59:../latido.c   **** 		led1_off();
 2026              		.loc 1 59 0
 2027 0100 FEFFFFEB 		bl	led1_off
  60:../latido.c   **** 		switch_leds_l=0;
 2028              		.loc 1 60 0
 2029 0104 28309FE5 		ldr	r3, .L8
 2030 0108 0020A0E3 		mov	r2, #0
 2031 010c 002083E5 		str	r2, [r3, #0]
 2032              	.L7:
 2033              	.LBE5:
  61:../latido.c   **** 	}
  62:../latido.c   **** 	/* borrar bit en I_ISPC para desactivar la solicitud de interrupción*/
  63:../latido.c   **** 
  64:../latido.c   **** 	rI_ISPC |= BIT_TIMER0; // BIT_TIMER0 está definido en 44b.h y pone un uno en el bit 11 que correpo
 2034              		.loc 1 64 0
 2035 0110 30309FE5 		ldr	r3, .L8+20
 2036 0114 2C209FE5 		ldr	r2, .L8+20
 2037 0118 002092E5 		ldr	r2, [r2, #0]
 2038 011c 022A82E3 		orr	r2, r2, #8192
 2039 0120 002083E5 		str	r2, [r3, #0]
  65:../latido.c   **** #endif
  66:../latido.c   **** 
  67:../latido.c   **** }
 2040              		.loc 1 67 0
 2041 0124 1CD04BE2 		sub	sp, fp, #28
 2042 0128 0F689DE8 		ldmfd	sp, {r0, r1, r2, r3, fp, sp, lr}
 2043 012c 04C09DE4 		ldmfd	sp!, {ip}
 2044 0130 04F05EE2 		subs	pc, lr, #4
 2045              	.L9:
 2046              		.align	2
 2047              	.L8:
 2048 0134 00000000 		.word	switch_leds_l
 2049 0138 00000000 		.word	en_espera
 2050 013c 00000000 		.word	cuenta_espera
 2051 0140 00000000 		.word	espera
 2052 0144 00000000 		.word	funcion_callback
 2053 0148 2400E001 		.word	31457316
 2054              		.cfi_endproc
 2055              	.LFE0:
 2057              		.align	2
 2058              		.global	latido_inicializar
 2060              	latido_inicializar:
 2061              	.LFB1:
  68:../latido.c   **** 
  69:../latido.c   **** /* Función que inicializa el timer2, dejandolo listo para empezar la cuenta con timer2_empezar() */
  70:../latido.c   **** void latido_inicializar(void)
  71:../latido.c   **** {
 2062              		.loc 1 71 0
 2063              		.cfi_startproc
 2064              		@ Function supports interworking.
 2065              		@ args = 0, pretend = 0, frame = 0
 2066              		@ frame_needed = 1, uses_anonymous_args = 0
 2067 014c 0DC0A0E1 		mov	ip, sp
 2068              	.LCFI2:
 2069              		.cfi_def_cfa_register 12
 2070 0150 00D82DE9 		stmfd	sp!, {fp, ip, lr, pc}
 2071 0154 04B04CE2 		sub	fp, ip, #4
 2072              		.cfi_offset 14, -8
 2073              		.cfi_offset 13, -12
 2074              		.cfi_offset 11, -16
 2075              	.LCFI3:
 2076              		.cfi_def_cfa 11, 4
  72:../latido.c   **** #ifndef EMU
  73:../latido.c   **** 	led1_off();
 2077              		.loc 1 73 0
 2078 0158 FEFFFFEB 		bl	led1_off
  74:../latido.c   **** 	/* Configuraion controlador de interrupciones */
  75:../latido.c   **** 	rINTMOD = 0x0; // Configura las linas como de tipo IRQ
 2079              		.loc 1 75 0
 2080 015c AC309FE5 		ldr	r3, .L11
 2081 0160 0020A0E3 		mov	r2, #0
 2082 0164 002083E5 		str	r2, [r3, #0]
  76:../latido.c   **** 	rINTCON = 0x1; // Habilita int. vectorizadas y la linea IRQ (FIQ no)
 2083              		.loc 1 76 0
 2084 0168 1E36A0E3 		mov	r3, #31457280
 2085 016c 0120A0E3 		mov	r2, #1
 2086 0170 002083E5 		str	r2, [r3, #0]
  77:../latido.c   **** 	rINTMSK &= ~(BIT_TIMER0); // habilitamos en vector de mascaras de interrupcion el Timer2 (bits 26 
 2087              		.loc 1 77 0
 2088 0174 98309FE5 		ldr	r3, .L11+4
 2089 0178 94209FE5 		ldr	r2, .L11+4
 2090 017c 002092E5 		ldr	r2, [r2, #0]
 2091 0180 022AC2E3 		bic	r2, r2, #8192
 2092 0184 002083E5 		str	r2, [r3, #0]
  78:../latido.c   **** 
  79:../latido.c   **** 	/* Establece la rutina de servicio para TIMER2 */
  80:../latido.c   **** 	pISR_TIMER0 = (unsigned) latido_ISR;
 2093              		.loc 1 80 0
 2094 0188 88309FE5 		ldr	r3, .L11+8
 2095 018c 88209FE5 		ldr	r2, .L11+12
 2096 0190 002083E5 		str	r2, [r3, #0]
  81:../latido.c   **** 
  82:../latido.c   **** 	/* Configura el Timer0 */
  83:../latido.c   **** 	rTCFG0 = (rTCFG0 & 0xffffff00) | 0x00000009; // Preescalado del timer2 en bits [7:0] de TCFG0. Div
 2097              		.loc 1 83 0
 2098 0194 84309FE5 		ldr	r3, .L11+16
 2099 0198 80209FE5 		ldr	r2, .L11+16
 2100 019c 002092E5 		ldr	r2, [r2, #0]
 2101 01a0 FF20C2E3 		bic	r2, r2, #255
 2102 01a4 092082E3 		orr	r2, r2, #9
 2103 01a8 002083E5 		str	r2, [r3, #0]
  84:../latido.c   **** 
  85:../latido.c   **** 	/*****************************************
  86:../latido.c   **** 	 * Bits de seleccion del MUX timer 0:	 *
  87:../latido.c   **** 	 * 1/2 -> 0000	1/4-> 0001				 *
  88:../latido.c   **** 	 * 1/8 -> 0010	1/16-> 0011	1/32 -> 0100 *
  89:../latido.c   **** 	 *****************************************/
  90:../latido.c   **** 	rTCFG1 &= 0xfffffff4; // Selección del mux para el divisor de frecuencia, bits [3:0] para timer2.
 2104              		.loc 1 90 0
 2105 01ac 70309FE5 		ldr	r3, .L11+20
 2106 01b0 6C209FE5 		ldr	r2, .L11+20
 2107 01b4 002092E5 		ldr	r2, [r2, #0]
 2108 01b8 0B20C2E3 		bic	r2, r2, #11
 2109 01bc 002083E5 		str	r2, [r3, #0]
  91:../latido.c   **** 	rTCNTB0 = 65535;// valor inicial de cuenta (la cuenta es descendente)
 2110              		.loc 1 91 0
 2111 01c0 60309FE5 		ldr	r3, .L11+24
 2112 01c4 60209FE5 		ldr	r2, .L11+28
 2113 01c8 002083E5 		str	r2, [r3, #0]
  92:../latido.c   **** 	rTCMPB0 = 64535 ;// valor de comparación (valor original 12800)
 2114              		.loc 1 92 0
 2115 01cc 5C309FE5 		ldr	r3, .L11+32
 2116 01d0 5C209FE5 		ldr	r2, .L11+36
 2117 01d4 002083E5 		str	r2, [r3, #0]
  93:../latido.c   **** 	//Timer control register, para timer0 bits [3:0] -> [3] auto-reload, [2] output inverter, [1] manu
  94:../latido.c   **** 	/* establecer update=manual (bit 1), inverter=off (0 en bit 2)*/
  95:../latido.c   **** 	rTCON = (rTCON & 0xfffffff0) | 0x00000002;
 2118              		.loc 1 95 0
 2119 01d8 58309FE5 		ldr	r3, .L11+40
 2120 01dc 54209FE5 		ldr	r2, .L11+40
 2121 01e0 002092E5 		ldr	r2, [r2, #0]
 2122 01e4 0F20C2E3 		bic	r2, r2, #15
 2123 01e8 022082E3 		orr	r2, r2, #2
 2124 01ec 002083E5 		str	r2, [r3, #0]
  96:../latido.c   **** 
  97:../latido.c   **** 	//Iniciamos el latido
  98:../latido.c   **** 	rTCON ^= 0x0B;
 2125              		.loc 1 98 0
 2126 01f0 40309FE5 		ldr	r3, .L11+40
 2127 01f4 3C209FE5 		ldr	r2, .L11+40
 2128 01f8 002092E5 		ldr	r2, [r2, #0]
 2129 01fc 0B2022E2 		eor	r2, r2, #11
 2130 0200 002083E5 		str	r2, [r3, #0]
  99:../latido.c   **** 	//rTCON = 0x09;
 100:../latido.c   **** #endif
 101:../latido.c   **** }
 2131              		.loc 1 101 0
 2132 0204 0CD04BE2 		sub	sp, fp, #12
 2133 0208 00689DE8 		ldmfd	sp, {fp, sp, lr}
 2134 020c 1EFF2FE1 		bx	lr
 2135              	.L12:
 2136              		.align	2
 2137              	.L11:
 2138 0210 0800E001 		.word	31457288
 2139 0214 0C00E001 		.word	31457292
 2140 0218 54FF7F0C 		.word	209715028
 2141 021c 00000000 		.word	latido_ISR
 2142 0220 0000D501 		.word	30736384
 2143 0224 0400D501 		.word	30736388
 2144 0228 0C00D501 		.word	30736396
 2145 022c FFFF0000 		.word	65535
 2146 0230 1000D501 		.word	30736400
 2147 0234 17FC0000 		.word	64535
 2148 0238 0800D501 		.word	30736392
 2149              		.cfi_endproc
 2150              	.LFE1:
 2152              		.align	2
 2153              		.global	espera_ticks
 2155              	espera_ticks:
 2156              	.LFB2:
 102:../latido.c   **** 
 103:../latido.c   **** void espera_ticks(int ticks,void (*callback_espera)()){
 2157              		.loc 1 103 0
 2158              		.cfi_startproc
 2159              		@ Function supports interworking.
 2160              		@ args = 0, pretend = 0, frame = 8
 2161              		@ frame_needed = 1, uses_anonymous_args = 0
 2162 023c 0DC0A0E1 		mov	ip, sp
 2163              	.LCFI4:
 2164              		.cfi_def_cfa_register 12
 2165 0240 00D82DE9 		stmfd	sp!, {fp, ip, lr, pc}
 2166 0244 04B04CE2 		sub	fp, ip, #4
 2167              		.cfi_offset 14, -8
 2168              		.cfi_offset 13, -12
 2169              		.cfi_offset 11, -16
 2170              	.LCFI5:
 2171              		.cfi_def_cfa 11, 4
 2172 0248 08D04DE2 		sub	sp, sp, #8
 2173 024c 10000BE5 		str	r0, [fp, #-16]
 2174 0250 14100BE5 		str	r1, [fp, #-20]
 104:../latido.c   **** 	en_espera=1;
 2175              		.loc 1 104 0
 2176 0254 28309FE5 		ldr	r3, .L14
 2177 0258 0120A0E3 		mov	r2, #1
 2178 025c 002083E5 		str	r2, [r3, #0]
 105:../latido.c   **** 	funcion_callback = callback_espera;
 2179              		.loc 1 105 0
 2180 0260 14201BE5 		ldr	r2, [fp, #-20]
 2181 0264 1C309FE5 		ldr	r3, .L14+4
 2182 0268 002083E5 		str	r2, [r3, #0]
 106:../latido.c   **** 	espera=ticks;
 2183              		.loc 1 106 0
 2184 026c 18309FE5 		ldr	r3, .L14+8
 2185 0270 10201BE5 		ldr	r2, [fp, #-16]
 2186 0274 002083E5 		str	r2, [r3, #0]
 107:../latido.c   **** #ifdef EMU
 108:../latido.c   **** 	funcion_callback();
 109:../latido.c   **** #endif
 110:../latido.c   **** }
 2187              		.loc 1 110 0
 2188 0278 0CD04BE2 		sub	sp, fp, #12
 2189 027c 00689DE8 		ldmfd	sp, {fp, sp, lr}
 2190 0280 1EFF2FE1 		bx	lr
 2191              	.L15:
 2192              		.align	2
 2193              	.L14:
 2194 0284 00000000 		.word	en_espera
 2195 0288 00000000 		.word	funcion_callback
 2196 028c 00000000 		.word	espera
 2197              		.cfi_endproc
 2198              	.LFE2:
 2200              	.Letext0: